(dp0
S'doc119'
p1
(dp2
S'rname'
p3
S'"doc119"'
p4
sS'sortable'
p5
I86
sS'raw_rname'
p6
S'doc119'
p7
sS'notnull'
p8
I00
sS'length'
p9
I512
sS'sql'
p10
S'CHAR(512)'
p11
sS'unique'
p12
I00
sS'type'
p13
S'string'
p14
ssS'doc213'
p15
(dp16
g3
S'"doc213"'
p17
sg5
I159
sg6
S'doc213'
p18
sg8
I00
sg9
I512
sg10
S'CHAR(512)'
p19
sg12
I00
sg13
g14
ssS'doc202'
p20
(dp21
g3
S'"doc202"'
p22
sg5
I156
sg6
S'doc202'
p23
sg8
I00
sg9
I512
sg10
S'CHAR(512)'
p24
sg12
I00
sg13
g14
ssS'doc203'
p25
(dp26
g3
S'"doc203"'
p27
sg5
I157
sg6
S'doc203'
p28
sg8
I00
sg9
I512
sg10
S'CHAR(512)'
p29
sg12
I00
sg13
g14
ssS'doc200'
p30
(dp31
g3
S'"doc200"'
p32
sg5
I154
sg6
S'doc200'
p33
sg8
I00
sg9
I512
sg10
S'CHAR(512)'
p34
sg12
I00
sg13
g14
ssS'doc201'
p35
(dp36
g3
S'"doc201"'
p37
sg5
I155
sg6
S'doc201'
p38
sg8
I00
sg9
I512
sg10
S'CHAR(512)'
p39
sg12
I00
sg13
g14
ssS'doc204'
p40
(dp41
g3
S'"doc204"'
p42
sg5
I158
sg6
S'doc204'
p43
sg8
I00
sg9
I512
sg10
S'CHAR(512)'
p44
sg12
I00
sg13
g14
ssS'doc69'
p45
(dp46
g3
S'"doc69"'
p47
sg5
I47
sg6
S'doc69'
p48
sg8
I00
sg9
I512
sg10
S'CHAR(512)'
p49
sg12
I00
sg13
g14
ssS'doc68'
p50
(dp51
g3
S'"doc68"'
p52
sg5
I46
sg6
S'doc68'
p53
sg8
I00
sg9
I512
sg10
S'CHAR(512)'
p54
sg12
I00
sg13
g14
ssS'doc65'
p55
(dp56
g3
S'"doc65"'
p57
sg5
I43
sg6
S'doc65'
p58
sg8
I00
sg9
I512
sg10
S'CHAR(512)'
p59
sg12
I00
sg13
g14
ssS'doc64'
p60
(dp61
g3
S'"doc64"'
p62
sg5
I42
sg6
S'doc64'
p63
sg8
I00
sg9
I512
sg10
S'CHAR(512)'
p64
sg12
I00
sg13
g14
ssS'doc67'
p65
(dp66
g3
S'"doc67"'
p67
sg5
I45
sg6
S'doc67'
p68
sg8
I00
sg9
I512
sg10
S'CHAR(512)'
p69
sg12
I00
sg13
g14
ssS'doc66'
p70
(dp71
g3
S'"doc66"'
p72
sg5
I44
sg6
S'doc66'
p73
sg8
I00
sg9
I512
sg10
S'CHAR(512)'
p74
sg12
I00
sg13
g14
ssS'doc61'
p75
(dp76
g3
S'"doc61"'
p77
sg5
I39
sg6
S'doc61'
p78
sg8
I00
sg9
I512
sg10
S'CHAR(512)'
p79
sg12
I00
sg13
g14
ssS'doc60'
p80
(dp81
g3
S'"doc60"'
p82
sg5
I38
sg6
S'doc60'
p83
sg8
I00
sg9
I512
sg10
S'CHAR(512)'
p84
sg12
I00
sg13
g14
ssS'doc63'
p85
(dp86
g3
S'"doc63"'
p87
sg5
I41
sg6
S'doc63'
p88
sg8
I00
sg9
I512
sg10
S'CHAR(512)'
p89
sg12
I00
sg13
g14
ssS'doc62'
p90
(dp91
g3
S'"doc62"'
p92
sg5
I40
sg6
S'doc62'
p93
sg8
I00
sg9
I512
sg10
S'CHAR(512)'
p94
sg12
I00
sg13
g14
ssS'doc178'
p95
(dp96
g3
S'"doc178"'
p97
sg5
I132
sg6
S'doc178'
p98
sg8
I00
sg9
I512
sg10
S'CHAR(512)'
p99
sg12
I00
sg13
g14
ssS'doc179'
p100
(dp101
g3
S'"doc179"'
p102
sg5
I133
sg6
S'doc179'
p103
sg8
I00
sg9
I512
sg10
S'CHAR(512)'
p104
sg12
I00
sg13
g14
ssS'doc170'
p105
(dp106
g3
S'"doc170"'
p107
sg5
I124
sg6
S'doc170'
p108
sg8
I00
sg9
I512
sg10
S'CHAR(512)'
p109
sg12
I00
sg13
g14
ssS'doc171'
p110
(dp111
g3
S'"doc171"'
p112
sg5
I125
sg6
S'doc171'
p113
sg8
I00
sg9
I512
sg10
S'CHAR(512)'
p114
sg12
I00
sg13
g14
ssS'doc172'
p115
(dp116
g3
S'"doc172"'
p117
sg5
I126
sg6
S'doc172'
p118
sg8
I00
sg9
I512
sg10
S'CHAR(512)'
p119
sg12
I00
sg13
g14
ssS'doc173'
p120
(dp121
g3
S'"doc173"'
p122
sg5
I127
sg6
S'doc173'
p123
sg8
I00
sg9
I512
sg10
S'CHAR(512)'
p124
sg12
I00
sg13
g14
ssS'doc174'
p125
(dp126
g3
S'"doc174"'
p127
sg5
I128
sg6
S'doc174'
p128
sg8
I00
sg9
I512
sg10
S'CHAR(512)'
p129
sg12
I00
sg13
g14
ssS'doc175'
p130
(dp131
g3
S'"doc175"'
p132
sg5
I129
sg6
S'doc175'
p133
sg8
I00
sg9
I512
sg10
S'CHAR(512)'
p134
sg12
I00
sg13
g14
ssS'doc176'
p135
(dp136
g3
S'"doc176"'
p137
sg5
I130
sg6
S'doc176'
p138
sg8
I00
sg9
I512
sg10
S'CHAR(512)'
p139
sg12
I00
sg13
g14
ssS'doc177'
p140
(dp141
g3
S'"doc177"'
p142
sg5
I131
sg6
S'doc177'
p143
sg8
I00
sg9
I512
sg10
S'CHAR(512)'
p144
sg12
I00
sg13
g14
ssS'doc219'
p145
(dp146
g3
S'"doc219"'
p147
sg5
I164
sg6
S'doc219'
p148
sg8
I00
sg9
I512
sg10
S'CHAR(512)'
p149
sg12
I00
sg13
g14
ssS'doc218'
p150
(dp151
g3
S'"doc218"'
p152
sg5
I163
sg6
S'doc218'
p153
sg8
I00
sg9
I512
sg10
S'CHAR(512)'
p154
sg12
I00
sg13
g14
ssS'doc198'
p155
(dp156
g3
S'"doc198"'
p157
sg5
I152
sg6
S'doc198'
p158
sg8
I00
sg9
I512
sg10
S'CHAR(512)'
p159
sg12
I00
sg13
g14
ssS'doc199'
p160
(dp161
g3
S'"doc199"'
p162
sg5
I153
sg6
S'doc199'
p163
sg8
I00
sg9
I512
sg10
S'CHAR(512)'
p164
sg12
I00
sg13
g14
ssS'doc192'
p165
(dp166
g3
S'"doc192"'
p167
sg5
I146
sg6
S'doc192'
p168
sg8
I00
sg9
I512
sg10
S'CHAR(512)'
p169
sg12
I00
sg13
g14
ssS'doc193'
p170
(dp171
g3
S'"doc193"'
p172
sg5
I147
sg6
S'doc193'
p173
sg8
I00
sg9
I512
sg10
S'CHAR(512)'
p174
sg12
I00
sg13
g14
ssS'doc190'
p175
(dp176
g3
S'"doc190"'
p177
sg5
I144
sg6
S'doc190'
p178
sg8
I00
sg9
I512
sg10
S'CHAR(512)'
p179
sg12
I00
sg13
g14
ssS'doc191'
p180
(dp181
g3
S'"doc191"'
p182
sg5
I145
sg6
S'doc191'
p183
sg8
I00
sg9
I512
sg10
S'CHAR(512)'
p184
sg12
I00
sg13
g14
ssS'doc196'
p185
(dp186
g3
S'"doc196"'
p187
sg5
I150
sg6
S'doc196'
p188
sg8
I00
sg9
I512
sg10
S'CHAR(512)'
p189
sg12
I00
sg13
g14
ssS'doc197'
p190
(dp191
g3
S'"doc197"'
p192
sg5
I151
sg6
S'doc197'
p193
sg8
I00
sg9
I512
sg10
S'CHAR(512)'
p194
sg12
I00
sg13
g14
ssS'doc194'
p195
(dp196
g3
S'"doc194"'
p197
sg5
I148
sg6
S'doc194'
p198
sg8
I00
sg9
I512
sg10
S'CHAR(512)'
p199
sg12
I00
sg13
g14
ssS'doc195'
p200
(dp201
g3
S'"doc195"'
p202
sg5
I149
sg6
S'doc195'
p203
sg8
I00
sg9
I512
sg10
S'CHAR(512)'
p204
sg12
I00
sg13
g14
ssS'doc163'
p205
(dp206
g3
S'"doc163"'
p207
sg5
I123
sg6
S'doc163'
p208
sg8
I00
sg9
I512
sg10
S'CHAR(512)'
p209
sg12
I00
sg13
g14
ssS'doc162'
p210
(dp211
g3
S'"doc162"'
p212
sg5
I122
sg6
S'doc162'
p213
sg8
I00
sg9
I512
sg10
S'CHAR(512)'
p214
sg12
I00
sg13
g14
ssS'doc161'
p215
(dp216
g3
S'"doc161"'
p217
sg5
I121
sg6
S'doc161'
p218
sg8
I00
sg9
I512
sg10
S'CHAR(512)'
p219
sg12
I00
sg13
g14
ssS'doc160'
p220
(dp221
g3
S'"doc160"'
p222
sg5
I120
sg6
S'doc160'
p223
sg8
I00
sg9
I512
sg10
S'CHAR(512)'
p224
sg12
I00
sg13
g14
ssS'doc72'
p225
(dp226
g3
S'"doc72"'
p227
sg5
I50
sg6
S'doc72'
p228
sg8
I00
sg9
I512
sg10
S'CHAR(512)'
p229
sg12
I00
sg13
g14
ssS'doc70'
p230
(dp231
g3
S'"doc70"'
p232
sg5
I48
sg6
S'doc70'
p233
sg8
I00
sg9
I512
sg10
S'CHAR(512)'
p234
sg12
I00
sg13
g14
ssS'doc71'
p235
(dp236
g3
S'"doc71"'
p237
sg5
I49
sg6
S'doc71'
p238
sg8
I00
sg9
I512
sg10
S'CHAR(512)'
p239
sg12
I00
sg13
g14
ssS'doc189'
p240
(dp241
g3
S'"doc189"'
p242
sg5
I143
sg6
S'doc189'
p243
sg8
I00
sg9
I512
sg10
S'CHAR(512)'
p244
sg12
I00
sg13
g14
ssS'doc188'
p245
(dp246
g3
S'"doc188"'
p247
sg5
I142
sg6
S'doc188'
p248
sg8
I00
sg9
I512
sg10
S'CHAR(512)'
p249
sg12
I00
sg13
g14
ssS'doc181'
p250
(dp251
g3
S'"doc181"'
p252
sg5
I135
sg6
S'doc181'
p253
sg8
I00
sg9
I512
sg10
S'CHAR(512)'
p254
sg12
I00
sg13
g14
ssS'doc180'
p255
(dp256
g3
S'"doc180"'
p257
sg5
I134
sg6
S'doc180'
p258
sg8
I00
sg9
I512
sg10
S'CHAR(512)'
p259
sg12
I00
sg13
g14
ssS'doc183'
p260
(dp261
g3
S'"doc183"'
p262
sg5
I137
sg6
S'doc183'
p263
sg8
I00
sg9
I512
sg10
S'CHAR(512)'
p264
sg12
I00
sg13
g14
ssS'doc182'
p265
(dp266
g3
S'"doc182"'
p267
sg5
I136
sg6
S'doc182'
p268
sg8
I00
sg9
I512
sg10
S'CHAR(512)'
p269
sg12
I00
sg13
g14
ssS'doc185'
p270
(dp271
g3
S'"doc185"'
p272
sg5
I139
sg6
S'doc185'
p273
sg8
I00
sg9
I512
sg10
S'CHAR(512)'
p274
sg12
I00
sg13
g14
ssS'doc184'
p275
(dp276
g3
S'"doc184"'
p277
sg5
I138
sg6
S'doc184'
p278
sg8
I00
sg9
I512
sg10
S'CHAR(512)'
p279
sg12
I00
sg13
g14
ssS'doc187'
p280
(dp281
g3
S'"doc187"'
p282
sg5
I141
sg6
S'doc187'
p283
sg8
I00
sg9
I512
sg10
S'CHAR(512)'
p284
sg12
I00
sg13
g14
ssS'doc186'
p285
(dp286
g3
S'"doc186"'
p287
sg5
I140
sg6
S'doc186'
p288
sg8
I00
sg9
I512
sg10
S'CHAR(512)'
p289
sg12
I00
sg13
g14
ssS'doc112'
p290
(dp291
g3
S'"doc112"'
p292
sg5
I80
sg6
S'doc112'
p293
sg8
I00
sg9
I512
sg10
S'CHAR(512)'
p294
sg12
I00
sg13
g14
ssS'doc113'
p295
(dp296
g3
S'"doc113"'
p297
sg5
I81
sg6
S'doc113'
p298
sg8
I00
sg9
I512
sg10
S'CHAR(512)'
p299
sg12
I00
sg13
g14
ssS'doc49'
p300
(dp301
g3
S'"doc49"'
p302
sg5
I28
sg6
S'doc49'
p303
sg8
I00
sg9
I512
sg10
S'CHAR(512)'
p304
sg12
I00
sg13
g14
ssS'doc48'
p305
(dp306
g3
S'"doc48"'
p307
sg5
I27
sg6
S'doc48'
p308
sg8
I00
sg9
I512
sg10
S'CHAR(512)'
p309
sg12
I00
sg13
g14
ssS'doc116'
p310
(dp311
g3
S'"doc116"'
p312
sg5
I83
sg6
S'doc116'
p313
sg8
I00
sg9
I512
sg10
S'CHAR(512)'
p314
sg12
I00
sg13
g14
ssS'doc117'
p315
(dp316
g3
S'"doc117"'
p317
sg5
I84
sg6
S'doc117'
p318
sg8
I00
sg9
I512
sg10
S'CHAR(512)'
p319
sg12
I00
sg13
g14
ssS'doc115'
p320
(dp321
g3
S'"doc115"'
p322
sg5
I82
sg6
S'doc115'
p323
sg8
I00
sg9
I512
sg10
S'CHAR(512)'
p324
sg12
I00
sg13
g14
ssS'doc43'
p325
(dp326
g3
S'"doc43"'
p327
sg5
I24
sg6
S'doc43'
p328
sg8
I00
sg9
I512
sg10
S'CHAR(512)'
p329
sg12
I00
sg13
g14
ssS'doc42'
p330
(dp331
g3
S'"doc42"'
p332
sg5
I23
sg6
S'doc42'
p333
sg8
I00
sg9
I512
sg10
S'CHAR(512)'
p334
sg12
I00
sg13
g14
ssS'doc118'
p335
(dp336
g3
S'"doc118"'
p337
sg5
I85
sg6
S'doc118'
p338
sg8
I00
sg9
I512
sg10
S'CHAR(512)'
p339
sg12
I00
sg13
g14
ssS'doc40'
p340
(dp341
g3
S'"doc40"'
p342
sg5
I22
sg6
S'doc40'
p343
sg8
I00
sg9
I512
sg10
S'CHAR(512)'
p344
sg12
I00
sg13
g14
ssS'doc47'
p345
(dp346
g3
S'"doc47"'
p347
sg5
I26
sg6
S'doc47'
p348
sg8
I00
sg9
I512
sg10
S'CHAR(512)'
p349
sg12
I00
sg13
g14
ssS'doc45'
p350
(dp351
g3
S'"doc45"'
p352
sg5
I25
sg6
S'doc45'
p353
sg8
I00
sg9
I512
sg10
S'CHAR(512)'
p354
sg12
I00
sg13
g14
ssS'stem'
p355
(dp356
g3
S'"stem"'
p357
sg5
I2
sg6
S'stem'
p358
sg8
I00
sg9
I512
sg10
S'CHAR(512)'
p359
sg12
I00
sg13
g14
ssS'doc54'
p360
(dp361
g3
S'"doc54"'
p362
sg5
I33
sg6
S'doc54'
p363
sg8
I00
sg9
I512
sg10
S'CHAR(512)'
p364
sg12
I00
sg13
g14
ssS'doc55'
p365
(dp366
g3
S'"doc55"'
p367
sg5
I34
sg6
S'doc55'
p368
sg8
I00
sg9
I512
sg10
S'CHAR(512)'
p369
sg12
I00
sg13
g14
ssS'doc57'
p370
(dp371
g3
S'"doc57"'
p372
sg5
I35
sg6
S'doc57'
p373
sg8
I00
sg9
I512
sg10
S'CHAR(512)'
p374
sg12
I00
sg13
g14
ssS'doc50'
p375
(dp376
g3
S'"doc50"'
p377
sg5
I29
sg6
S'doc50'
p378
sg8
I00
sg9
I512
sg10
S'CHAR(512)'
p379
sg12
I00
sg13
g14
ssS'doc51'
p380
(dp381
g3
S'"doc51"'
p382
sg5
I30
sg6
S'doc51'
p383
sg8
I00
sg9
I512
sg10
S'CHAR(512)'
p384
sg12
I00
sg13
g14
ssS'doc52'
p385
(dp386
g3
S'"doc52"'
p387
sg5
I31
sg6
S'doc52'
p388
sg8
I00
sg9
I512
sg10
S'CHAR(512)'
p389
sg12
I00
sg13
g14
ssS'doc53'
p390
(dp391
g3
S'"doc53"'
p392
sg5
I32
sg6
S'doc53'
p393
sg8
I00
sg9
I512
sg10
S'CHAR(512)'
p394
sg12
I00
sg13
g14
ssS'doc58'
p395
(dp396
g3
S'"doc58"'
p397
sg5
I36
sg6
S'doc58'
p398
sg8
I00
sg9
I512
sg10
S'CHAR(512)'
p399
sg12
I00
sg13
g14
ssS'doc59'
p400
(dp401
g3
S'"doc59"'
p402
sg5
I37
sg6
S'doc59'
p403
sg8
I00
sg9
I512
sg10
S'CHAR(512)'
p404
sg12
I00
sg13
g14
ssS'doc101'
p405
(dp406
g3
S'"doc101"'
p407
sg5
I70
sg6
S'doc101'
p408
sg8
I00
sg9
I512
sg10
S'CHAR(512)'
p409
sg12
I00
sg13
g14
ssS'doc100'
p410
(dp411
g3
S'"doc100"'
p412
sg5
I69
sg6
S'doc100'
p413
sg8
I00
sg9
I512
sg10
S'CHAR(512)'
p414
sg12
I00
sg13
g14
ssS'doc102'
p415
(dp416
g3
S'"doc102"'
p417
sg5
I71
sg6
S'doc102'
p418
sg8
I00
sg9
I512
sg10
S'CHAR(512)'
p419
sg12
I00
sg13
g14
ssS'doc105'
p420
(dp421
g3
S'"doc105"'
p422
sg5
I73
sg6
S'doc105'
p423
sg8
I00
sg9
I512
sg10
S'CHAR(512)'
p424
sg12
I00
sg13
g14
ssS'doc104'
p425
(dp426
g3
S'"doc104"'
p427
sg5
I72
sg6
S'doc104'
p428
sg8
I00
sg9
I512
sg10
S'CHAR(512)'
p429
sg12
I00
sg13
g14
ssS'doc107'
p430
(dp431
g3
S'"doc107"'
p432
sg5
I75
sg6
S'doc107'
p433
sg8
I00
sg9
I512
sg10
S'CHAR(512)'
p434
sg12
I00
sg13
g14
ssS'doc106'
p435
(dp436
g3
S'"doc106"'
p437
sg5
I74
sg6
S'doc106'
p438
sg8
I00
sg9
I512
sg10
S'CHAR(512)'
p439
sg12
I00
sg13
g14
ssS'doc109'
p440
(dp441
g3
S'"doc109"'
p442
sg5
I77
sg6
S'doc109'
p443
sg8
I00
sg9
I512
sg10
S'CHAR(512)'
p444
sg12
I00
sg13
g14
ssS'doc108'
p445
(dp446
g3
S'"doc108"'
p447
sg5
I76
sg6
S'doc108'
p448
sg8
I00
sg9
I512
sg10
S'CHAR(512)'
p449
sg12
I00
sg13
g14
ssS'doc224'
p450
(dp451
g3
S'"doc224"'
p452
sg5
I169
sg6
S'doc224'
p453
sg8
I00
sg9
I512
sg10
S'CHAR(512)'
p454
sg12
I00
sg13
g14
ssS'doc225'
p455
(dp456
g3
S'"doc225"'
p457
sg5
I170
sg6
S'doc225'
p458
sg8
I00
sg9
I512
sg10
S'CHAR(512)'
p459
sg12
I00
sg13
g14
ssS'doc226'
p460
(dp461
g3
S'"doc226"'
p462
sg5
I171
sg6
S'doc226'
p463
sg8
I00
sg9
I512
sg10
S'CHAR(512)'
p464
sg12
I00
sg13
g14
ssS'doc227'
p465
(dp466
g3
S'"doc227"'
p467
sg5
I172
sg6
S'doc227'
p468
sg8
I00
sg9
I512
sg10
S'CHAR(512)'
p469
sg12
I00
sg13
g14
ssS'doc220'
p470
(dp471
g3
S'"doc220"'
p472
sg5
I165
sg6
S'doc220'
p473
sg8
I00
sg9
I512
sg10
S'CHAR(512)'
p474
sg12
I00
sg13
g14
ssS'doc221'
p475
(dp476
g3
S'"doc221"'
p477
sg5
I166
sg6
S'doc221'
p478
sg8
I00
sg9
I512
sg10
S'CHAR(512)'
p479
sg12
I00
sg13
g14
ssS'doc222'
p480
(dp481
g3
S'"doc222"'
p482
sg5
I167
sg6
S'doc222'
p483
sg8
I00
sg9
I512
sg10
S'CHAR(512)'
p484
sg12
I00
sg13
g14
ssS'doc223'
p485
(dp486
g3
S'"doc223"'
p487
sg5
I168
sg6
S'doc223'
p488
sg8
I00
sg9
I512
sg10
S'CHAR(512)'
p489
sg12
I00
sg13
g14
ssS'doc228'
p490
(dp491
g3
S'"doc228"'
p492
sg5
I173
sg6
S'doc228'
p493
sg8
I00
sg9
I512
sg10
S'CHAR(512)'
p494
sg12
I00
sg13
g14
ssS'doc229'
p495
(dp496
g3
S'"doc229"'
p497
sg5
I174
sg6
S'doc229'
p498
sg8
I00
sg9
I512
sg10
S'CHAR(512)'
p499
sg12
I00
sg13
g14
ssS'doc246'
p500
(dp501
g3
S'"doc246"'
p502
sg5
I190
sg6
S'doc246'
p503
sg8
I00
sg9
I512
sg10
S'CHAR(512)'
p504
sg12
I00
sg13
g14
ssS'doc247'
p505
(dp506
g3
S'"doc247"'
p507
sg5
I191
sg6
S'doc247'
p508
sg8
I00
sg9
I512
sg10
S'CHAR(512)'
p509
sg12
I00
sg13
g14
ssS'doc244'
p510
(dp511
g3
S'"doc244"'
p512
sg5
I188
sg6
S'doc244'
p513
sg8
I00
sg9
I512
sg10
S'CHAR(512)'
p514
sg12
I00
sg13
g14
ssS'doc245'
p515
(dp516
g3
S'"doc245"'
p517
sg5
I189
sg6
S'doc245'
p518
sg8
I00
sg9
I512
sg10
S'CHAR(512)'
p519
sg12
I00
sg13
g14
ssS'doc242'
p520
(dp521
g3
S'"doc242"'
p522
sg5
I186
sg6
S'doc242'
p523
sg8
I00
sg9
I512
sg10
S'CHAR(512)'
p524
sg12
I00
sg13
g14
ssS'doc243'
p525
(dp526
g3
S'"doc243"'
p527
sg5
I187
sg6
S'doc243'
p528
sg8
I00
sg9
I512
sg10
S'CHAR(512)'
p529
sg12
I00
sg13
g14
ssS'doc240'
p530
(dp531
g3
S'"doc240"'
p532
sg5
I184
sg6
S'doc240'
p533
sg8
I00
sg9
I512
sg10
S'CHAR(512)'
p534
sg12
I00
sg13
g14
ssS'doc241'
p535
(dp536
g3
S'"doc241"'
p537
sg5
I185
sg6
S'doc241'
p538
sg8
I00
sg9
I512
sg10
S'CHAR(512)'
p539
sg12
I00
sg13
g14
ssS'doc248'
p540
(dp541
g3
S'"doc248"'
p542
sg5
I192
sg6
S'doc248'
p543
sg8
I00
sg9
I512
sg10
S'CHAR(512)'
p544
sg12
I00
sg13
g14
ssS'doc249'
p545
(dp546
g3
S'"doc249"'
p547
sg5
I193
sg6
S'doc249'
p548
sg8
I00
sg9
I512
sg10
S'CHAR(512)'
p549
sg12
I00
sg13
g14
ssS'doc21'
p550
(dp551
g3
S'"doc21"'
p552
sg5
I7
sg6
S'doc21'
p553
sg8
I00
sg9
I512
sg10
S'CHAR(512)'
p554
sg12
I00
sg13
g14
ssS'doc20'
p555
(dp556
g3
S'"doc20"'
p557
sg5
I6
sg6
S'doc20'
p558
sg8
I00
sg9
I512
sg10
S'CHAR(512)'
p559
sg12
I00
sg13
g14
ssS'doc23'
p560
(dp561
g3
S'"doc23"'
p562
sg5
I8
sg6
S'doc23'
p563
sg8
I00
sg9
I512
sg10
S'CHAR(512)'
p564
sg12
I00
sg13
g14
ssS'doc25'
p565
(dp566
g3
S'"doc25"'
p567
sg5
I10
sg6
S'doc25'
p568
sg8
I00
sg9
I512
sg10
S'CHAR(512)'
p569
sg12
I00
sg13
g14
ssS'doc24'
p570
(dp571
g3
S'"doc24"'
p572
sg5
I9
sg6
S'doc24'
p573
sg8
I00
sg9
I512
sg10
S'CHAR(512)'
p574
sg12
I00
sg13
g14
ssS'doc27'
p575
(dp576
g3
S'"doc27"'
p577
sg5
I12
sg6
S'doc27'
p578
sg8
I00
sg9
I512
sg10
S'CHAR(512)'
p579
sg12
I00
sg13
g14
ssS'doc26'
p580
(dp581
g3
S'"doc26"'
p582
sg5
I11
sg6
S'doc26'
p583
sg8
I00
sg9
I512
sg10
S'CHAR(512)'
p584
sg12
I00
sg13
g14
ssS'doc29'
p585
(dp586
g3
S'"doc29"'
p587
sg5
I14
sg6
S'doc29'
p588
sg8
I00
sg9
I512
sg10
S'CHAR(512)'
p589
sg12
I00
sg13
g14
ssS'doc28'
p590
(dp591
g3
S'"doc28"'
p592
sg5
I13
sg6
S'doc28'
p593
sg8
I00
sg9
I512
sg10
S'CHAR(512)'
p594
sg12
I00
sg13
g14
ssS'doc138'
p595
(dp596
g3
S'"doc138"'
p597
sg5
I101
sg6
S'doc138'
p598
sg8
I00
sg9
I512
sg10
S'CHAR(512)'
p599
sg12
I00
sg13
g14
ssS'doc134'
p600
(dp601
g3
S'"doc134"'
p602
sg5
I97
sg6
S'doc134'
p603
sg8
I00
sg9
I512
sg10
S'CHAR(512)'
p604
sg12
I00
sg13
g14
ssS'doc135'
p605
(dp606
g3
S'"doc135"'
p607
sg5
I98
sg6
S'doc135'
p608
sg8
I00
sg9
I512
sg10
S'CHAR(512)'
p609
sg12
I00
sg13
g14
ssS'doc136'
p610
(dp611
g3
S'"doc136"'
p612
sg5
I99
sg6
S'doc136'
p613
sg8
I00
sg9
I512
sg10
S'CHAR(512)'
p614
sg12
I00
sg13
g14
ssS'doc137'
p615
(dp616
g3
S'"doc137"'
p617
sg5
I100
sg6
S'doc137'
p618
sg8
I00
sg9
I512
sg10
S'CHAR(512)'
p619
sg12
I00
sg13
g14
ssS'doc130'
p620
(dp621
g3
S'"doc130"'
p622
sg5
I94
sg6
S'doc130'
p623
sg8
I00
sg9
I512
sg10
S'CHAR(512)'
p624
sg12
I00
sg13
g14
ssS'doc131'
p625
(dp626
g3
S'"doc131"'
p627
sg5
I95
sg6
S'doc131'
p628
sg8
I00
sg9
I512
sg10
S'CHAR(512)'
p629
sg12
I00
sg13
g14
ssS'doc133'
p630
(dp631
g3
S'"doc133"'
p632
sg5
I96
sg6
S'doc133'
p633
sg8
I00
sg9
I512
sg10
S'CHAR(512)'
p634
sg12
I00
sg13
g14
ssS'doc232'
p635
(dp636
g3
S'"doc232"'
p637
sg5
I177
sg6
S'doc232'
p638
sg8
I00
sg9
I512
sg10
S'CHAR(512)'
p639
sg12
I00
sg13
g14
ssS'doc231'
p640
(dp641
g3
S'"doc231"'
p642
sg5
I176
sg6
S'doc231'
p643
sg8
I00
sg9
I512
sg10
S'CHAR(512)'
p644
sg12
I00
sg13
g14
ssS'doc230'
p645
(dp646
g3
S'"doc230"'
p647
sg5
I175
sg6
S'doc230'
p648
sg8
I00
sg9
I512
sg10
S'CHAR(512)'
p649
sg12
I00
sg13
g14
ssS'doc237'
p650
(dp651
g3
S'"doc237"'
p652
sg5
I181
sg6
S'doc237'
p653
sg8
I00
sg9
I512
sg10
S'CHAR(512)'
p654
sg12
I00
sg13
g14
ssS'doc236'
p655
(dp656
g3
S'"doc236"'
p657
sg5
I180
sg6
S'doc236'
p658
sg8
I00
sg9
I512
sg10
S'CHAR(512)'
p659
sg12
I00
sg13
g14
ssS'doc235'
p660
(dp661
g3
S'"doc235"'
p662
sg5
I179
sg6
S'doc235'
p663
sg8
I00
sg9
I512
sg10
S'CHAR(512)'
p664
sg12
I00
sg13
g14
ssS'doc234'
p665
(dp666
g3
S'"doc234"'
p667
sg5
I178
sg6
S'doc234'
p668
sg8
I00
sg9
I512
sg10
S'CHAR(512)'
p669
sg12
I00
sg13
g14
ssS'doc239'
p670
(dp671
g3
S'"doc239"'
p672
sg5
I183
sg6
S'doc239'
p673
sg8
I00
sg9
I512
sg10
S'CHAR(512)'
p674
sg12
I00
sg13
g14
ssS'doc238'
p675
(dp676
g3
S'"doc238"'
p677
sg5
I182
sg6
S'doc238'
p678
sg8
I00
sg9
I512
sg10
S'CHAR(512)'
p679
sg12
I00
sg13
g14
ssS'doc255'
p680
(dp681
g3
S'"doc255"'
p682
sg5
I199
sg6
S'doc255'
p683
sg8
I00
sg9
I512
sg10
S'CHAR(512)'
p684
sg12
I00
sg13
g14
ssS'doc254'
p685
(dp686
g3
S'"doc254"'
p687
sg5
I198
sg6
S'doc254'
p688
sg8
I00
sg9
I512
sg10
S'CHAR(512)'
p689
sg12
I00
sg13
g14
ssS'doc257'
p690
(dp691
g3
S'"doc257"'
p692
sg5
I201
sg6
S'doc257'
p693
sg8
I00
sg9
I512
sg10
S'CHAR(512)'
p694
sg12
I00
sg13
g14
ssS'doc256'
p695
(dp696
g3
S'"doc256"'
p697
sg5
I200
sg6
S'doc256'
p698
sg8
I00
sg9
I512
sg10
S'CHAR(512)'
p699
sg12
I00
sg13
g14
ssS'doc251'
p700
(dp701
g3
S'"doc251"'
p702
sg5
I195
sg6
S'doc251'
p703
sg8
I00
sg9
I512
sg10
S'CHAR(512)'
p704
sg12
I00
sg13
g14
ssS'doc250'
p705
(dp706
g3
S'"doc250"'
p707
sg5
I194
sg6
S'doc250'
p708
sg8
I00
sg9
I512
sg10
S'CHAR(512)'
p709
sg12
I00
sg13
g14
ssS'doc253'
p710
(dp711
g3
S'"doc253"'
p712
sg5
I197
sg6
S'doc253'
p713
sg8
I00
sg9
I512
sg10
S'CHAR(512)'
p714
sg12
I00
sg13
g14
ssS'doc252'
p715
(dp716
g3
S'"doc252"'
p717
sg5
I196
sg6
S'doc252'
p718
sg8
I00
sg9
I512
sg10
S'CHAR(512)'
p719
sg12
I00
sg13
g14
ssS'doc259'
p720
(dp721
g3
S'"doc259"'
p722
sg5
I203
sg6
S'doc259'
p723
sg8
I00
sg9
I512
sg10
S'CHAR(512)'
p724
sg12
I00
sg13
g14
ssS'doc258'
p725
(dp726
g3
S'"doc258"'
p727
sg5
I202
sg6
S'doc258'
p728
sg8
I00
sg9
I512
sg10
S'CHAR(512)'
p729
sg12
I00
sg13
g14
ssS'doc32'
p730
(dp731
g3
S'"doc32"'
p732
sg5
I17
sg6
S'doc32'
p733
sg8
I00
sg9
I512
sg10
S'CHAR(512)'
p734
sg12
I00
sg13
g14
ssS'doc33'
p735
(dp736
g3
S'"doc33"'
p737
sg5
I18
sg6
S'doc33'
p738
sg8
I00
sg9
I512
sg10
S'CHAR(512)'
p739
sg12
I00
sg13
g14
ssS'doc30'
p740
(dp741
g3
S'"doc30"'
p742
sg5
I15
sg6
S'doc30'
p743
sg8
I00
sg9
I512
sg10
S'CHAR(512)'
p744
sg12
I00
sg13
g14
ssS'doc31'
p745
(dp746
g3
S'"doc31"'
p747
sg5
I16
sg6
S'doc31'
p748
sg8
I00
sg9
I512
sg10
S'CHAR(512)'
p749
sg12
I00
sg13
g14
ssS'doc36'
p750
(dp751
g3
S'"doc36"'
p752
sg5
I21
sg6
S'doc36'
p753
sg8
I00
sg9
I512
sg10
S'CHAR(512)'
p754
sg12
I00
sg13
g14
ssS'doc34'
p755
(dp756
g3
S'"doc34"'
p757
sg5
I19
sg6
S'doc34'
p758
sg8
I00
sg9
I512
sg10
S'CHAR(512)'
p759
sg12
I00
sg13
g14
ssS'doc35'
p760
(dp761
g3
S'"doc35"'
p762
sg5
I20
sg6
S'doc35'
p763
sg8
I00
sg9
I512
sg10
S'CHAR(512)'
p764
sg12
I00
sg13
g14
ssS'doc129'
p765
(dp766
g3
S'"doc129"'
p767
sg5
I93
sg6
S'doc129'
p768
sg8
I00
sg9
I512
sg10
S'CHAR(512)'
p769
sg12
I00
sg13
g14
ssS'doc128'
p770
(dp771
g3
S'"doc128"'
p772
sg5
I92
sg6
S'doc128'
p773
sg8
I00
sg9
I512
sg10
S'CHAR(512)'
p774
sg12
I00
sg13
g14
ssS'doc123'
p775
(dp776
g3
S'"doc123"'
p777
sg5
I90
sg6
S'doc123'
p778
sg8
I00
sg9
I512
sg10
S'CHAR(512)'
p779
sg12
I00
sg13
g14
ssS'doc122'
p780
(dp781
g3
S'"doc122"'
p782
sg5
I89
sg6
S'doc122'
p783
sg8
I00
sg9
I512
sg10
S'CHAR(512)'
p784
sg12
I00
sg13
g14
ssS'doc121'
p785
(dp786
g3
S'"doc121"'
p787
sg5
I88
sg6
S'doc121'
p788
sg8
I00
sg9
I512
sg10
S'CHAR(512)'
p789
sg12
I00
sg13
g14
ssS'doc120'
p790
(dp791
g3
S'"doc120"'
p792
sg5
I87
sg6
S'doc120'
p793
sg8
I00
sg9
I512
sg10
S'CHAR(512)'
p794
sg12
I00
sg13
g14
ssS'doc126'
p795
(dp796
g3
S'"doc126"'
p797
sg5
I91
sg6
S'doc126'
p798
sg8
I00
sg9
I512
sg10
S'CHAR(512)'
p799
sg12
I00
sg13
g14
ssS'doc260'
p800
(dp801
g3
S'"doc260"'
p802
sg5
I204
sg6
S'doc260'
p803
sg8
I00
sg9
I512
sg10
S'CHAR(512)'
p804
sg12
I00
sg13
g14
ssS'doc261'
p805
(dp806
g3
S'"doc261"'
p807
sg5
I205
sg6
S'doc261'
p808
sg8
I00
sg9
I512
sg10
S'CHAR(512)'
p809
sg12
I00
sg13
g14
ssS'id'
p810
(dp811
g3
S'"id"'
p812
sg5
I1
sg6
S'id'
p813
sg8
I00
sg9
I512
sg10
S'INTEGER PRIMARY KEY AUTOINCREMENT'
p814
sg12
I00
sg13
g813
ssS'doc87'
p815
(dp816
g3
S'"doc87"'
p817
sg5
I57
sg6
S'doc87'
p818
sg8
I00
sg9
I512
sg10
S'CHAR(512)'
p819
sg12
I00
sg13
g14
ssS'doc86'
p820
(dp821
g3
S'"doc86"'
p822
sg5
I56
sg6
S'doc86'
p823
sg8
I00
sg9
I512
sg10
S'CHAR(512)'
p824
sg12
I00
sg13
g14
ssS'doc85'
p825
(dp826
g3
S'"doc85"'
p827
sg5
I55
sg6
S'doc85'
p828
sg8
I00
sg9
I512
sg10
S'CHAR(512)'
p829
sg12
I00
sg13
g14
ssS'doc84'
p830
(dp831
g3
S'"doc84"'
p832
sg5
I54
sg6
S'doc84'
p833
sg8
I00
sg9
I512
sg10
S'CHAR(512)'
p834
sg12
I00
sg13
g14
ssS'doc83'
p835
(dp836
g3
S'"doc83"'
p837
sg5
I53
sg6
S'doc83'
p838
sg8
I00
sg9
I512
sg10
S'CHAR(512)'
p839
sg12
I00
sg13
g14
ssS'doc82'
p840
(dp841
g3
S'"doc82"'
p842
sg5
I52
sg6
S'doc82'
p843
sg8
I00
sg9
I512
sg10
S'CHAR(512)'
p844
sg12
I00
sg13
g14
ssS'doc81'
p845
(dp846
g3
S'"doc81"'
p847
sg5
I51
sg6
S'doc81'
p848
sg8
I00
sg9
I512
sg10
S'CHAR(512)'
p849
sg12
I00
sg13
g14
ssS'doc88'
p850
(dp851
g3
S'"doc88"'
p852
sg5
I58
sg6
S'doc88'
p853
sg8
I00
sg9
I512
sg10
S'CHAR(512)'
p854
sg12
I00
sg13
g14
ssS'doc158'
p855
(dp856
g3
S'"doc158"'
p857
sg5
I118
sg6
S'doc158'
p858
sg8
I00
sg9
I512
sg10
S'CHAR(512)'
p859
sg12
I00
sg13
g14
ssS'doc159'
p860
(dp861
g3
S'"doc159"'
p862
sg5
I119
sg6
S'doc159'
p863
sg8
I00
sg9
I512
sg10
S'CHAR(512)'
p864
sg12
I00
sg13
g14
ssS'doc156'
p865
(dp866
g3
S'"doc156"'
p867
sg5
I116
sg6
S'doc156'
p868
sg8
I00
sg9
I512
sg10
S'CHAR(512)'
p869
sg12
I00
sg13
g14
ssS'doc157'
p870
(dp871
g3
S'"doc157"'
p872
sg5
I117
sg6
S'doc157'
p873
sg8
I00
sg9
I512
sg10
S'CHAR(512)'
p874
sg12
I00
sg13
g14
ssS'doc154'
p875
(dp876
g3
S'"doc154"'
p877
sg5
I114
sg6
S'doc154'
p878
sg8
I00
sg9
I512
sg10
S'CHAR(512)'
p879
sg12
I00
sg13
g14
ssS'doc155'
p880
(dp881
g3
S'"doc155"'
p882
sg5
I115
sg6
S'doc155'
p883
sg8
I00
sg9
I512
sg10
S'CHAR(512)'
p884
sg12
I00
sg13
g14
ssS'doc152'
p885
(dp886
g3
S'"doc152"'
p887
sg5
I112
sg6
S'doc152'
p888
sg8
I00
sg9
I512
sg10
S'CHAR(512)'
p889
sg12
I00
sg13
g14
ssS'doc153'
p890
(dp891
g3
S'"doc153"'
p892
sg5
I113
sg6
S'doc153'
p893
sg8
I00
sg9
I512
sg10
S'CHAR(512)'
p894
sg12
I00
sg13
g14
ssS'doc150'
p895
(dp896
g3
S'"doc150"'
p897
sg5
I110
sg6
S'doc150'
p898
sg8
I00
sg9
I512
sg10
S'CHAR(512)'
p899
sg12
I00
sg13
g14
ssS'doc151'
p900
(dp901
g3
S'"doc151"'
p902
sg5
I111
sg6
S'doc151'
p903
sg8
I00
sg9
I512
sg10
S'CHAR(512)'
p904
sg12
I00
sg13
g14
ssS'doc215'
p905
(dp906
g3
S'"doc215"'
p907
sg5
I161
sg6
S'doc215'
p908
sg8
I00
sg9
I512
sg10
S'CHAR(512)'
p909
sg12
I00
sg13
g14
ssS'doc110'
p910
(dp911
g3
S'"doc110"'
p912
sg5
I78
sg6
S'doc110'
p913
sg8
I00
sg9
I512
sg10
S'CHAR(512)'
p914
sg12
I00
sg13
g14
ssS'doc214'
p915
(dp916
g3
S'"doc214"'
p917
sg5
I160
sg6
S'doc214'
p918
sg8
I00
sg9
I512
sg10
S'CHAR(512)'
p919
sg12
I00
sg13
g14
ssS'doc18'
p920
(dp921
g3
S'"doc18"'
p922
sg5
I4
sg6
S'doc18'
p923
sg8
I00
sg9
I512
sg10
S'CHAR(512)'
p924
sg12
I00
sg13
g14
ssS'doc19'
p925
(dp926
g3
S'"doc19"'
p927
sg5
I5
sg6
S'doc19'
p928
sg8
I00
sg9
I512
sg10
S'CHAR(512)'
p929
sg12
I00
sg13
g14
ssS'doc111'
p930
(dp931
g3
S'"doc111"'
p932
sg5
I79
sg6
S'doc111'
p933
sg8
I00
sg9
I512
sg10
S'CHAR(512)'
p934
sg12
I00
sg13
g14
ssS'doc217'
p935
(dp936
g3
S'"doc217"'
p937
sg5
I162
sg6
S'doc217'
p938
sg8
I00
sg9
I512
sg10
S'CHAR(512)'
p939
sg12
I00
sg13
g14
ssS'doc17'
p940
(dp941
g3
S'"doc17"'
p942
sg5
I3
sg6
S'doc17'
p943
sg8
I00
sg9
I512
sg10
S'CHAR(512)'
p944
sg12
I00
sg13
g14
ssS'doc90'
p945
(dp946
g3
S'"doc90"'
p947
sg5
I59
sg6
S'doc90'
p948
sg8
I00
sg9
I512
sg10
S'CHAR(512)'
p949
sg12
I00
sg13
g14
ssS'doc91'
p950
(dp951
g3
S'"doc91"'
p952
sg5
I60
sg6
S'doc91'
p953
sg8
I00
sg9
I512
sg10
S'CHAR(512)'
p954
sg12
I00
sg13
g14
ssS'doc92'
p955
(dp956
g3
S'"doc92"'
p957
sg5
I61
sg6
S'doc92'
p958
sg8
I00
sg9
I512
sg10
S'CHAR(512)'
p959
sg12
I00
sg13
g14
ssS'doc93'
p960
(dp961
g3
S'"doc93"'
p962
sg5
I62
sg6
S'doc93'
p963
sg8
I00
sg9
I512
sg10
S'CHAR(512)'
p964
sg12
I00
sg13
g14
ssS'doc94'
p965
(dp966
g3
S'"doc94"'
p967
sg5
I63
sg6
S'doc94'
p968
sg8
I00
sg9
I512
sg10
S'CHAR(512)'
p969
sg12
I00
sg13
g14
ssS'doc95'
p970
(dp971
g3
S'"doc95"'
p972
sg5
I64
sg6
S'doc95'
p973
sg8
I00
sg9
I512
sg10
S'CHAR(512)'
p974
sg12
I00
sg13
g14
ssS'doc96'
p975
(dp976
g3
S'"doc96"'
p977
sg5
I65
sg6
S'doc96'
p978
sg8
I00
sg9
I512
sg10
S'CHAR(512)'
p979
sg12
I00
sg13
g14
ssS'doc97'
p980
(dp981
g3
S'"doc97"'
p982
sg5
I66
sg6
S'doc97'
p983
sg8
I00
sg9
I512
sg10
S'CHAR(512)'
p984
sg12
I00
sg13
g14
ssS'doc98'
p985
(dp986
g3
S'"doc98"'
p987
sg5
I67
sg6
S'doc98'
p988
sg8
I00
sg9
I512
sg10
S'CHAR(512)'
p989
sg12
I00
sg13
g14
ssS'doc99'
p990
(dp991
g3
S'"doc99"'
p992
sg5
I68
sg6
S'doc99'
p993
sg8
I00
sg9
I512
sg10
S'CHAR(512)'
p994
sg12
I00
sg13
g14
ssS'doc149'
p995
(dp996
g3
S'"doc149"'
p997
sg5
I109
sg6
S'doc149'
p998
sg8
I00
sg9
I512
sg10
S'CHAR(512)'
p999
sg12
I00
sg13
g14
ssS'doc148'
p1000
(dp1001
g3
S'"doc148"'
p1002
sg5
I108
sg6
S'doc148'
p1003
sg8
I00
sg9
I512
sg10
S'CHAR(512)'
p1004
sg12
I00
sg13
g14
ssS'doc145'
p1005
(dp1006
g3
S'"doc145"'
p1007
sg5
I105
sg6
S'doc145'
p1008
sg8
I00
sg9
I512
sg10
S'CHAR(512)'
p1009
sg12
I00
sg13
g14
ssS'doc144'
p1010
(dp1011
g3
S'"doc144"'
p1012
sg5
I104
sg6
S'doc144'
p1013
sg8
I00
sg9
I512
sg10
S'CHAR(512)'
p1014
sg12
I00
sg13
g14
ssS'doc147'
p1015
(dp1016
g3
S'"doc147"'
p1017
sg5
I107
sg6
S'doc147'
p1018
sg8
I00
sg9
I512
sg10
S'CHAR(512)'
p1019
sg12
I00
sg13
g14
ssS'doc146'
p1020
(dp1021
g3
S'"doc146"'
p1022
sg5
I106
sg6
S'doc146'
p1023
sg8
I00
sg9
I512
sg10
S'CHAR(512)'
p1024
sg12
I00
sg13
g14
ssS'doc140'
p1025
(dp1026
g3
S'"doc140"'
p1027
sg5
I102
sg6
S'doc140'
p1028
sg8
I00
sg9
I512
sg10
S'CHAR(512)'
p1029
sg12
I00
sg13
g14
ssS'doc143'
p1030
(dp1031
g3
S'"doc143"'
p1032
sg5
I103
sg6
S'doc143'
p1033
sg8
I00
sg9
I512
sg10
S'CHAR(512)'
p1034
sg12
I00
sg13
g14
ss.